target datalayout = "e-m:e-p270:32:32-p271:32:32-p272:64:64-i64:64-i128:128-f80:128-n8:16:32:64-S128"
target triple = "x86_64-pc-linux-gnu"

%struct.FileStruct = type { i32, i64 }

; Function Attrs: nounwind uwtable
define internal i64 @WriteFileCallback(ptr noundef %0, i64 noundef %1, i64 noundef %2, ptr noundef %3) #0 {
  %5 = alloca i64, align 8
  %6 = alloca ptr, align 8
  %7 = alloca i64, align 8
  %8 = alloca i64, align 8
  %9 = alloca ptr, align 8
  %10 = alloca i64, align 8
  %11 = alloca ptr, align 8
  %12 = alloca i64, align 8
  %13 = alloca i32, align 4
  store ptr %0, ptr %6, align 8, !tbaa !20
  store i64 %1, ptr %7, align 8, !tbaa !7
  store i64 %2, ptr %8, align 8, !tbaa !7
  store ptr %3, ptr %9, align 8, !tbaa !20
  call void @llvm.lifetime.start.p0(i64 8, ptr %10) #13
  %14 = load i64, ptr %7, align 8, !tbaa !7
  %15 = load i64, ptr %8, align 8, !tbaa !7
  %16 = mul i64 %14, %15
  store i64 %16, ptr %10, align 8, !tbaa !7
  call void @llvm.lifetime.start.p0(i64 8, ptr %11) #13
  %17 = load ptr, ptr %9, align 8, !tbaa !20
  store ptr %17, ptr %11, align 8, !tbaa !74
  call void @llvm.lifetime.start.p0(i64 8, ptr %12) #13
  store i64 0, ptr %12, align 8, !tbaa !7
  %18 = load ptr, ptr %6, align 8, !tbaa !20
  %19 = icmp eq ptr null, %18
  br i1 %19, label %23, label %20

20:                                               ; preds = %4
  %21 = load ptr, ptr %9, align 8, !tbaa !20
  %22 = icmp eq ptr null, %21
  br i1 %22, label %23, label %24

23:                                               ; preds = %20, %4
  store i64 0, ptr %5, align 8
  store i32 1, ptr %13, align 4
  br label %37

24:                                               ; preds = %20
  %25 = load ptr, ptr %11, align 8, !tbaa !74
  %26 = getelementptr inbounds nuw %struct.FileStruct, ptr %25, i32 0, i32 0
  %27 = load i32, ptr %26, align 8, !tbaa !54
  %28 = load ptr, ptr %6, align 8, !tbaa !20
  %29 = load i64, ptr %10, align 8, !tbaa !7
  %30 = call i64 @write(i32 noundef %27, ptr noundef %28, i64 noundef %29)
  store i64 %30, ptr %12, align 8, !tbaa !7
  %31 = load i64, ptr %12, align 8, !tbaa !7
  %32 = load ptr, ptr %11, align 8, !tbaa !74
  %33 = getelementptr inbounds nuw %struct.FileStruct, ptr %32, i32 0, i32 1
  %34 = load i64, ptr %33, align 8, !tbaa !56
  %35 = add i64 %34, %31
  store i64 %35, ptr %33, align 8, !tbaa !56
  %36 = load i64, ptr %12, align 8, !tbaa !7
  store i64 %36, ptr %5, align 8
  store i32 1, ptr %13, align 4
  br label %37

37:                                               ; preds = %24, %23
  call void @llvm.lifetime.end.p0(i64 8, ptr %12) #13
  call void @llvm.lifetime.end.p0(i64 8, ptr %11) #13
  call void @llvm.lifetime.end.p0(i64 8, ptr %10) #13
  %38 = load i64, ptr %5, align 8
  ret i64 %38
}