; Function Attrs: nofree nounwind uwtable
define internal noundef i64 @WriteFileCallback(ptr noundef readonly %0, i64 noundef %1, i64 noundef %2, ptr noundef %3) #21 {
  %5 = icmp eq ptr %0, null
  %6 = icmp eq ptr %3, null
  %or.cond = or i1 %5, %6
  br i1 %or.cond, label %14, label %7

7:                                                ; preds = %4
  %8 = mul i64 %2, %1
  %9 = load i32, ptr %3, align 8, !tbaa !42
  %10 = tail call i64 @write(i32 noundef %9, ptr noundef nonnull %0, i64 noundef %8) #24
  %11 = getelementptr inbounds nuw i8, ptr %3, i64 8
  %12 = load i64, ptr %11, align 8, !tbaa !44
  %13 = add i64 %12, %10
  store i64 %13, ptr %11, align 8, !tbaa !44
  br label %14

14:                                               ; preds = %4, %7
  %.0 = phi i64 [ %10, %7 ], [ 0, %4 ]
  ret i64 %.0
}